
LIBRARY winmm
EXPORTS
   mixerOpen=?dummyFunc@@YGXXZ
	CloseDriver=?dummyFunc@@YGXXZ
	DefDriverProc=?dummyFunc@@YGXXZ
	DriverCallback=?dummyFunc@@YGXXZ
	DrvGetModuleHandle=?dummyFunc@@YGXXZ
	GetDriverModuleHandle=?dummyFunc@@YGXXZ
	OpenDriver=?dummyFunc@@YGXXZ
	PlaySound=?dummyFunc@@YGXXZ
	PlaySoundA=?dummyFunc@@YGXXZ
	PlaySoundW=?dummyFunc@@YGXXZ
	SendDriverMessage=?dummyFunc@@YGXXZ
	WOWAppExit=?dummyFunc@@YGXXZ
	auxGetDevCapsA=?dummyFunc@@YGXXZ
	auxGetDevCapsW=?dummyFunc@@YGXXZ
	auxGetNumDevs=?dummyFunc@@YGXXZ
	auxGetVolume=?dummyFunc@@YGXXZ
	auxOutMessage=?dummyFunc@@YGXXZ
	auxSetVolume=?dummyFunc@@YGXXZ
	joyConfigChanged=?dummyFunc@@YGXXZ
	joyGetDevCapsA=?dummyFunc@@YGXXZ
	joyGetDevCapsW=?dummyFunc@@YGXXZ
	joyGetNumDevs=?dummyFunc@@YGXXZ
	joyGetPos=?dummyFunc@@YGXXZ
	joyGetPosEx=?dummyFunc@@YGXXZ
	joyGetThreshold=?dummyFunc@@YGXXZ
	joyReleaseCapture=?dummyFunc@@YGXXZ
	joySetCapture=?dummyFunc@@YGXXZ
	joySetThreshold=?dummyFunc@@YGXXZ
	mciDriverNotify=?dummyFunc@@YGXXZ
	mciDriverYield=?dummyFunc@@YGXXZ
	mciExecute=?dummyFunc@@YGXXZ
	mciFreeCommandResource=?dummyFunc@@YGXXZ
	mciGetCreatorTask=?dummyFunc@@YGXXZ
	mciGetDeviceIDA=?dummyFunc@@YGXXZ
	mciGetDeviceIDFromElementIDA=?dummyFunc@@YGXXZ
	mciGetDeviceIDFromElementIDW=?dummyFunc@@YGXXZ
	mciGetDeviceIDW=?dummyFunc@@YGXXZ
	mciGetDriverData=?dummyFunc@@YGXXZ
	mciGetErrorStringA=?dummyFunc@@YGXXZ
	mciGetErrorStringW=?dummyFunc@@YGXXZ
	mciGetYieldProc=?dummyFunc@@YGXXZ
	mciLoadCommandResource=?dummyFunc@@YGXXZ
	mciSendCommandA=?dummyFunc@@YGXXZ
	mciSendCommandW=?dummyFunc@@YGXXZ
	mciSendStringA=?dummyFunc@@YGXXZ
	mciSendStringW=?dummyFunc@@YGXXZ
	mciSetDriverData=?dummyFunc@@YGXXZ
	mciSetYieldProc=?dummyFunc@@YGXXZ
	midiConnect=?dummyFunc@@YGXXZ
	midiDisconnect=?dummyFunc@@YGXXZ
	midiInAddBuffer=?dummyFunc@@YGXXZ
	midiInClose=?dummyFunc@@YGXXZ
	midiInGetDevCapsA=?dummyFunc@@YGXXZ
	midiInGetDevCapsW=?dummyFunc@@YGXXZ
	midiInGetErrorTextA=?dummyFunc@@YGXXZ
	midiInGetErrorTextW=?dummyFunc@@YGXXZ
	midiInGetID=?dummyFunc@@YGXXZ
	midiInGetNumDevs=?dummyFunc@@YGXXZ
	midiInMessage=?dummyFunc@@YGXXZ
	midiInOpen=?dummyFunc@@YGXXZ
	midiInPrepareHeader=?dummyFunc@@YGXXZ
	midiInReset=?dummyFunc@@YGXXZ
	midiInStart=?dummyFunc@@YGXXZ
	midiInStop=?dummyFunc@@YGXXZ
	midiInUnprepareHeader=?dummyFunc@@YGXXZ
	midiOutCacheDrumPatches=?dummyFunc@@YGXXZ
	midiOutCachePatches=?dummyFunc@@YGXXZ
	midiOutClose=?dummyFunc@@YGXXZ
	midiOutGetDevCapsA=?dummyFunc@@YGXXZ
	midiOutGetDevCapsW=?dummyFunc@@YGXXZ
	midiOutGetErrorTextA=?dummyFunc@@YGXXZ
	midiOutGetErrorTextW=?dummyFunc@@YGXXZ
	midiOutGetID=?dummyFunc@@YGXXZ
	midiOutGetNumDevs=?dummyFunc@@YGXXZ
	midiOutGetVolume=?dummyFunc@@YGXXZ
	midiOutLongMsg=?dummyFunc@@YGXXZ
	midiOutMessage=?dummyFunc@@YGXXZ
	midiOutOpen=?dummyFunc@@YGXXZ
	midiOutPrepareHeader=?dummyFunc@@YGXXZ
	midiOutReset=?dummyFunc@@YGXXZ
	midiOutSetVolume=?dummyFunc@@YGXXZ
	midiOutShortMsg=?dummyFunc@@YGXXZ
	midiOutUnprepareHeader=?dummyFunc@@YGXXZ
	midiStreamClose=?dummyFunc@@YGXXZ
	midiStreamOpen=?dummyFunc@@YGXXZ
	midiStreamOut=?dummyFunc@@YGXXZ
	midiStreamPause=?dummyFunc@@YGXXZ
	midiStreamPosition=?dummyFunc@@YGXXZ
	midiStreamProperty=?dummyFunc@@YGXXZ
	midiStreamRestart=?dummyFunc@@YGXXZ
	midiStreamStop=?dummyFunc@@YGXXZ
	mixerClose=?dummyFunc@@YGXXZ
	mixerGetControlDetailsA=?dummyFunc@@YGXXZ
	mixerGetControlDetailsW=?dummyFunc@@YGXXZ
	mixerGetDevCapsA=?dummyFunc@@YGXXZ
	mixerGetDevCapsW=?dummyFunc@@YGXXZ
	mixerGetID=?dummyFunc@@YGXXZ
	mixerGetLineControlsA=?dummyFunc@@YGXXZ
	mixerGetLineControlsW=?dummyFunc@@YGXXZ
	mixerGetLineInfoA=?dummyFunc@@YGXXZ
	mixerGetLineInfoW=?dummyFunc@@YGXXZ
	mixerGetNumDevs=?dummyFunc@@YGXXZ
	mixerMessage=?dummyFunc@@YGXXZ
	mixerSetControlDetails=?dummyFunc@@YGXXZ
	mmDrvInstall=?dummyFunc@@YGXXZ
	mmGetCurrentTask=?dummyFunc@@YGXXZ
	mmTaskBlock=?dummyFunc@@YGXXZ
	mmTaskCreate=?dummyFunc@@YGXXZ
	mmTaskSignal=?dummyFunc@@YGXXZ
	mmTaskYield=?dummyFunc@@YGXXZ
	mmioAdvance=?dummyFunc@@YGXXZ
	mmioAscend=?dummyFunc@@YGXXZ
	mmioClose=?dummyFunc@@YGXXZ
	mmioCreateChunk=?dummyFunc@@YGXXZ
	mmioDescend=?dummyFunc@@YGXXZ
	mmioFlush=?dummyFunc@@YGXXZ
	mmioGetInfo=?dummyFunc@@YGXXZ
	mmioInstallIOProcA=?dummyFunc@@YGXXZ
	mmioInstallIOProcW=?dummyFunc@@YGXXZ
	mmioOpenA=?dummyFunc@@YGXXZ
	mmioOpenW=?dummyFunc@@YGXXZ
	mmioRead=?dummyFunc@@YGXXZ
	mmioRenameA=?dummyFunc@@YGXXZ
	mmioRenameW=?dummyFunc@@YGXXZ
	mmioSeek=?dummyFunc@@YGXXZ
	mmioSendMessage=?dummyFunc@@YGXXZ
	mmioSetBuffer=?dummyFunc@@YGXXZ
	mmioSetInfo=?dummyFunc@@YGXXZ
	mmioStringToFOURCCA=?dummyFunc@@YGXXZ
	mmioStringToFOURCCW=?dummyFunc@@YGXXZ
	mmioWrite=?dummyFunc@@YGXXZ
	mmsystemGetVersion=?dummyFunc@@YGXXZ
	sndPlaySoundA=?dummyFunc@@YGXXZ
	sndPlaySoundW=?dummyFunc@@YGXXZ
	timeBeginPeriod=?dummyFunc@@YGXXZ
	timeEndPeriod=?dummyFunc@@YGXXZ
	timeGetDevCaps=?dummyFunc@@YGXXZ
	timeGetSystemTime=?dummyFunc@@YGXXZ
	timeGetTime=?dummyFunc@@YGXXZ
	timeKillEvent=?dummyFunc@@YGXXZ
	timeSetEvent=?dummyFunc@@YGXXZ
	waveInAddBuffer=?dummyFunc@@YGXXZ
	waveInClose=?dummyFunc@@YGXXZ
	waveInGetDevCapsA=?dummyFunc@@YGXXZ
	waveInGetDevCapsW=?dummyFunc@@YGXXZ
	waveInGetErrorTextA=?dummyFunc@@YGXXZ
	waveInGetErrorTextW=?dummyFunc@@YGXXZ
	waveInGetID=?dummyFunc@@YGXXZ
	waveInGetNumDevs=?dummyFunc@@YGXXZ
	waveInGetPosition=?dummyFunc@@YGXXZ
	waveInMessage=?dummyFunc@@YGXXZ
	waveInOpen=?dummyFunc@@YGXXZ
	waveInPrepareHeader=?dummyFunc@@YGXXZ
	waveInReset=?dummyFunc@@YGXXZ
	waveInStart=?dummyFunc@@YGXXZ
	waveInStop=?dummyFunc@@YGXXZ
	waveInUnprepareHeader=?dummyFunc@@YGXXZ
	waveOutBreakLoop=?dummyFunc@@YGXXZ
	waveOutClose=?dummyFunc@@YGXXZ
	waveOutGetDevCapsA=?dummyFunc@@YGXXZ
	waveOutGetDevCapsW=?dummyFunc@@YGXXZ
	waveOutGetErrorTextA=?dummyFunc@@YGXXZ
	waveOutGetErrorTextW=?dummyFunc@@YGXXZ
	waveOutGetID=?dummyFunc@@YGXXZ
	waveOutGetNumDevs=?dummyFunc@@YGXXZ
	waveOutGetPitch=?dummyFunc@@YGXXZ
	waveOutGetPlaybackRate=?dummyFunc@@YGXXZ
	waveOutGetPosition=?dummyFunc@@YGXXZ
	waveOutGetVolume=?dummyFunc@@YGXXZ
	waveOutMessage=?dummyFunc@@YGXXZ
	waveOutOpen=?dummyFunc@@YGXXZ
	waveOutPause=?dummyFunc@@YGXXZ
	waveOutPrepareHeader=?dummyFunc@@YGXXZ
	waveOutReset=?dummyFunc@@YGXXZ
	waveOutRestart=?dummyFunc@@YGXXZ
	waveOutSetPitch=?dummyFunc@@YGXXZ
	waveOutSetPlaybackRate=?dummyFunc@@YGXXZ
	waveOutSetVolume=?dummyFunc@@YGXXZ
	waveOutUnprepareHeader=?dummyFunc@@YGXXZ
	waveOutWrite=?dummyFunc@@YGXXZ